target datalayout = "e-m:e-p270:32:32-p271:32:32-p272:64:64-i64:64-i128:128-f80:128-n8:16:32:64-S128"
target triple = "x86_64-pc-linux-gnu"

%struct.H5O_t = type { %struct.H5C_cache_entry_t, i64, i64, i8, i64, i8, i32, i8, i8, i64, i64, i64, i64, i32, i32, i64, i64, ptr, i64, i64, i64, i64, ptr, i8, ptr }
%struct.H5C_cache_entry_t = type { ptr, i64, i64, ptr, i8, ptr, i8, i8, i8, i8, i32, i8, i8, i8, i8, i8, i32, ptr, i32, i32, i32, i32, i32, i8, i8, ptr, ptr, ptr, ptr, ptr, ptr, i8, i32, i8, i64, ptr, i64, i64, i32, i8, i32, i32, i8, ptr, ptr, ptr }
%struct.H5O_chunk_t = type { i64, i64, i64, ptr, ptr }
%struct.H5O_mesg_t = type { ptr, i8, i8, i32, i32, ptr, ptr, i64 }

@H5O_init_g = external global i8, align 1
@H5_libterm_g = external global i8, align 1
@.str.3 = private unnamed_addr constant [102 x i8] c"generated/home/dtcxzyw/WorkSpace/Projects/compilers/llvm-opt-benchmark/bench/hdf5/hdf5/src/H5Ocache.c\00", align 1
@H5E_OHDR_g = external global i64, align 8
@__func__.H5O__chunk_serialize = private unnamed_addr constant [21 x i8] c"H5O__chunk_serialize\00", align 1
@H5E_CANTENCODE_g = external global i64, align 8
@.str.38 = private unnamed_addr constant [39 x i8] c"unable to encode object header message\00", align 1

; Function Attrs: nounwind uwtable
define internal i32 @H5O__chunk_serialize(ptr noundef %0, ptr noundef %1, i32 noundef %2) #0 {
  %4 = alloca ptr, align 8
  %5 = alloca ptr, align 8
  %6 = alloca i32, align 4
  %7 = alloca ptr, align 8
  %8 = alloca i32, align 4
  %9 = alloca i32, align 4
  %10 = alloca i8, align 1
  %11 = alloca i32, align 4
  %12 = alloca ptr, align 8
  store ptr %0, ptr %4, align 8, !tbaa !55
  store ptr %1, ptr %5, align 8, !tbaa !43
  store i32 %2, ptr %6, align 4, !tbaa !17
  call void @llvm.lifetime.start.p0(i64 8, ptr %7) #7
  call void @llvm.lifetime.start.p0(i64 4, ptr %8) #7
  call void @llvm.lifetime.start.p0(i64 4, ptr %9) #7
  store i32 0, ptr %9, align 4, !tbaa !17
  call void @llvm.lifetime.start.p0(i64 1, ptr %10) #7
  store i8 0, ptr %10, align 1, !tbaa !9
  %13 = load i8, ptr @H5O_init_g, align 1, !tbaa !9, !range !11, !noundef !12
  %14 = trunc i8 %13 to i1
  br i1 %14, label %19, label %15

15:                                               ; preds = %3
  %16 = load i8, ptr @H5_libterm_g, align 1, !tbaa !9, !range !11, !noundef !12
  %17 = trunc i8 %16 to i1
  %18 = xor i1 %17, true
  br label %19

19:                                               ; preds = %15, %3
  %20 = phi i1 [ true, %3 ], [ %18, %15 ]
  %21 = xor i1 %20, true
  %22 = xor i1 %21, true
  %23 = zext i1 %22 to i32
  %24 = sext i32 %23 to i64
  %25 = call i64 @llvm.expect.i64(i64 %24, i64 1)
  %26 = icmp ne i64 %25, 0
  br i1 %26, label %27, label %212

27:                                               ; preds = %19
  store i32 0, ptr %8, align 4, !tbaa !17
  %28 = load ptr, ptr %5, align 8, !tbaa !43
  %29 = getelementptr inbounds nuw %struct.H5O_t, ptr %28, i32 0, i32 17
  %30 = load ptr, ptr %29, align 8, !tbaa !68
  %31 = getelementptr inbounds %struct.H5O_mesg_t, ptr %30, i64 0
  store ptr %31, ptr %7, align 8, !tbaa !105
  br label %32

32:                                               ; preds = %77, %27
  %33 = load i32, ptr %8, align 4, !tbaa !17
  %34 = zext i32 %33 to i64
  %35 = load ptr, ptr %5, align 8, !tbaa !43
  %36 = getelementptr inbounds nuw %struct.H5O_t, ptr %35, i32 0, i32 15
  %37 = load i64, ptr %36, align 8, !tbaa !49
  %38 = icmp ult i64 %34, %37
  br i1 %38, label %39, label %82

39:                                               ; preds = %32
  %40 = load ptr, ptr %7, align 8, !tbaa !105
  %41 = getelementptr inbounds nuw %struct.H5O_mesg_t, ptr %40, i32 0, i32 1
  %42 = load i8, ptr %41, align 8, !tbaa !72, !range !11, !noundef !12
  %43 = trunc i8 %42 to i1
  br i1 %43, label %44, label %76

44:                                               ; preds = %39
  %45 = load ptr, ptr %7, align 8, !tbaa !105
  %46 = getelementptr inbounds nuw %struct.H5O_mesg_t, ptr %45, i32 0, i32 4
  %47 = load i32, ptr %46, align 8, !tbaa !69
  %48 = load i32, ptr %6, align 4, !tbaa !17
  %49 = icmp eq i32 %47, %48
  br i1 %49, label %50, label %76

50:                                               ; preds = %44
  %51 = load ptr, ptr %4, align 8, !tbaa !55
  %52 = load ptr, ptr %5, align 8, !tbaa !43
  %53 = load ptr, ptr %7, align 8, !tbaa !105
  %54 = call i32 @H5O_msg_flush(ptr noundef %51, ptr noundef %52, ptr noundef %53)
  %55 = icmp slt i32 %54, 0
  br i1 %55, label %56, label %75

56:                                               ; preds = %50
  br label %57

57:                                               ; preds = %56
  br label %58

58:                                               ; preds = %57
  br label %59

59:                                               ; preds = %58
  %60 = load i64, ptr @H5E_OHDR_g, align 8, !tbaa !13
  %61 = load i64, ptr @H5E_CANTENCODE_g, align 8, !tbaa !13
  %62 = call i32 (ptr, ptr, i32, i64, i64, ptr, ...) @H5E_printf_stack(ptr noundef @.str.3, ptr noundef @__func__.H5O__chunk_serialize, i32 noundef 1554, i64 noundef %60, i64 noundef %61, ptr noundef @.str.38)
  br label %63

63:                                               ; preds = %59
  br label %64

64:                                               ; preds = %63
  store i8 1, ptr %10, align 1, !tbaa !9
  %65 = load i8, ptr %10, align 1, !tbaa !9, !range !11, !noundef !12
  %66 = trunc i8 %65 to i1
  %67 = zext i1 %66 to i8
  store i8 %67, ptr %10, align 1, !tbaa !9
  br label %68

68:                                               ; preds = %64
  br label %69

69:                                               ; preds = %68
  br label %70

70:                                               ; preds = %69
  store i32 -1, ptr %9, align 4, !tbaa !17
  br label %211

71:                                               ; No predecessors!
  br label %72

72:                                               ; preds = %71
  br label %73

73:                                               ; preds = %72
  br label %74

74:                                               ; preds = %73
  br label %75

75:                                               ; preds = %74, %50
  br label %76

76:                                               ; preds = %75, %44, %39
  br label %77

77:                                               ; preds = %76
  %78 = load i32, ptr %8, align 4, !tbaa !17
  %79 = add i32 %78, 1
  store i32 %79, ptr %8, align 4, !tbaa !17
  %80 = load ptr, ptr %7, align 8, !tbaa !105
  %81 = getelementptr inbounds nuw %struct.H5O_mesg_t, ptr %80, i32 1
  store ptr %81, ptr %7, align 8, !tbaa !105
  br label %32, !llvm.loop !133

82:                                               ; preds = %32
  %83 = load ptr, ptr %5, align 8, !tbaa !43
  %84 = getelementptr inbounds nuw %struct.H5O_t, ptr %83, i32 0, i32 7
  %85 = load i8, ptr %84, align 8, !tbaa !26
  %86 = zext i8 %85 to i32
  %87 = icmp sgt i32 %86, 1
  br i1 %87, label %88, label %89

88:                                               ; preds = %82
  br label %90

89:                                               ; preds = %82
  br label %90

90:                                               ; preds = %89, %88
  %91 = load ptr, ptr %5, align 8, !tbaa !43
  %92 = getelementptr inbounds nuw %struct.H5O_t, ptr %91, i32 0, i32 7
  %93 = load i8, ptr %92, align 8, !tbaa !26
  %94 = zext i8 %93 to i32
  %95 = icmp sgt i32 %94, 1
  br i1 %95, label %96, label %210

96:                                               ; preds = %90
  call void @llvm.lifetime.start.p0(i64 4, ptr %11) #7
  call void @llvm.lifetime.start.p0(i64 8, ptr %12) #7
  %97 = load ptr, ptr %5, align 8, !tbaa !43
  %98 = getelementptr inbounds nuw %struct.H5O_t, ptr %97, i32 0, i32 22
  %99 = load ptr, ptr %98, align 8, !tbaa !51
  %100 = load i32, ptr %6, align 4, !tbaa !17
  %101 = zext i32 %100 to i64
  %102 = getelementptr inbounds nuw %struct.H5O_chunk_t, ptr %99, i64 %101
  %103 = getelementptr inbounds nuw %struct.H5O_chunk_t, ptr %102, i32 0, i32 2
  %104 = load i64, ptr %103, align 8, !tbaa !96
  %105 = icmp ne i64 %104, 0
  br i1 %105, label %106, label %143

106:                                              ; preds = %96
  %107 = load ptr, ptr %5, align 8, !tbaa !43
  %108 = getelementptr inbounds nuw %struct.H5O_t, ptr %107, i32 0, i32 22
  %109 = load ptr, ptr %108, align 8, !tbaa !51
  %110 = load i32, ptr %6, align 4, !tbaa !17
  %111 = zext i32 %110 to i64
  %112 = getelementptr inbounds nuw %struct.H5O_chunk_t, ptr %109, i64 %111
  %113 = getelementptr inbounds nuw %struct.H5O_chunk_t, ptr %112, i32 0, i32 3
  %114 = load ptr, ptr %113, align 8, !tbaa !56
  %115 = load ptr, ptr %5, align 8, !tbaa !43
  %116 = getelementptr inbounds nuw %struct.H5O_t, ptr %115, i32 0, i32 22
  %117 = load ptr, ptr %116, align 8, !tbaa !51
  %118 = load i32, ptr %6, align 4, !tbaa !17
  %119 = zext i32 %118 to i64
  %120 = getelementptr inbounds nuw %struct.H5O_chunk_t, ptr %117, i64 %119
  %121 = getelementptr inbounds nuw %struct.H5O_chunk_t, ptr %120, i32 0, i32 1
  %122 = load i64, ptr %121, align 8, !tbaa !52
  %123 = getelementptr inbounds nuw i8, ptr %114, i64 %122
  %124 = load ptr, ptr %5, align 8, !tbaa !43
  %125 = getelementptr inbounds nuw %struct.H5O_t, ptr %124, i32 0, i32 22
  %126 = load ptr, ptr %125, align 8, !tbaa !51
  %127 = load i32, ptr %6, align 4, !tbaa !17
  %128 = zext i32 %127 to i64
  %129 = getelementptr inbounds nuw %struct.H5O_chunk_t, ptr %126, i64 %128
  %130 = getelementptr inbounds nuw %struct.H5O_chunk_t, ptr %129, i32 0, i32 2
  %131 = load i64, ptr %130, align 8, !tbaa !96
  %132 = add i64 4, %131
  %133 = sub i64 0, %132
  %134 = getelementptr inbounds i8, ptr %123, i64 %133
  %135 = load ptr, ptr %5, align 8, !tbaa !43
  %136 = getelementptr inbounds nuw %struct.H5O_t, ptr %135, i32 0, i32 22
  %137 = load ptr, ptr %136, align 8, !tbaa !51
  %138 = load i32, ptr %6, align 4, !tbaa !17
  %139 = zext i32 %138 to i64
  %140 = getelementptr inbounds nuw %struct.H5O_chunk_t, ptr %137, i64 %139
  %141 = getelementptr inbounds nuw %struct.H5O_chunk_t, ptr %140, i32 0, i32 2
  %142 = load i64, ptr %141, align 8, !tbaa !96
  call void @llvm.memset.p0.i64(ptr align 1 %134, i8 0, i64 %142, i1 false)
  br label %143

143:                                              ; preds = %106, %96
  %144 = load ptr, ptr %5, align 8, !tbaa !43
  %145 = getelementptr inbounds nuw %struct.H5O_t, ptr %144, i32 0, i32 22
  %146 = load ptr, ptr %145, align 8, !tbaa !51
  %147 = load i32, ptr %6, align 4, !tbaa !17
  %148 = zext i32 %147 to i64
  %149 = getelementptr inbounds nuw %struct.H5O_chunk_t, ptr %146, i64 %148
  %150 = getelementptr inbounds nuw %struct.H5O_chunk_t, ptr %149, i32 0, i32 3
  %151 = load ptr, ptr %150, align 8, !tbaa !56
  %152 = load ptr, ptr %5, align 8, !tbaa !43
  %153 = getelementptr inbounds nuw %struct.H5O_t, ptr %152, i32 0, i32 22
  %154 = load ptr, ptr %153, align 8, !tbaa !51
  %155 = load i32, ptr %6, align 4, !tbaa !17
  %156 = zext i32 %155 to i64
  %157 = getelementptr inbounds nuw %struct.H5O_chunk_t, ptr %154, i64 %156
  %158 = getelementptr inbounds nuw %struct.H5O_chunk_t, ptr %157, i32 0, i32 1
  %159 = load i64, ptr %158, align 8, !tbaa !52
  %160 = sub i64 %159, 4
  %161 = call i32 @H5_checksum_metadata(ptr noundef %151, i64 noundef %160, i32 noundef 0)
  store i32 %161, ptr %11, align 4, !tbaa !17
  %162 = load ptr, ptr %5, align 8, !tbaa !43
  %163 = getelementptr inbounds nuw %struct.H5O_t, ptr %162, i32 0, i32 22
  %164 = load ptr, ptr %163, align 8, !tbaa !51
  %165 = load i32, ptr %6, align 4, !tbaa !17
  %166 = zext i32 %165 to i64
  %167 = getelementptr inbounds nuw %struct.H5O_chunk_t, ptr %164, i64 %166
  %168 = getelementptr inbounds nuw %struct.H5O_chunk_t, ptr %167, i32 0, i32 3
  %169 = load ptr, ptr %168, align 8, !tbaa !56
  %170 = load ptr, ptr %5, align 8, !tbaa !43
  %171 = getelementptr inbounds nuw %struct.H5O_t, ptr %170, i32 0, i32 22
  %172 = load ptr, ptr %171, align 8, !tbaa !51
  %173 = load i32, ptr %6, align 4, !tbaa !17
  %174 = zext i32 %173 to i64
  %175 = getelementptr inbounds nuw %struct.H5O_chunk_t, ptr %172, i64 %174
  %176 = getelementptr inbounds nuw %struct.H5O_chunk_t, ptr %175, i32 0, i32 1
  %177 = load i64, ptr %176, align 8, !tbaa !52
  %178 = sub i64 %177, 4
  %179 = getelementptr inbounds nuw i8, ptr %169, i64 %178
  store ptr %179, ptr %12, align 8, !tbaa !39
  br label %180

180:                                              ; preds = %143
  %181 = load i32, ptr %11, align 4, !tbaa !17
  %182 = and i32 %181, 255
  %183 = trunc i32 %182 to i8
  %184 = load ptr, ptr %12, align 8, !tbaa !39
  store i8 %183, ptr %184, align 1, !tbaa !57
  %185 = load ptr, ptr %12, align 8, !tbaa !39
  %186 = getelementptr inbounds nuw i8, ptr %185, i32 1
  store ptr %186, ptr %12, align 8, !tbaa !39
  %187 = load i32, ptr %11, align 4, !tbaa !17
  %188 = lshr i32 %187, 8
  %189 = and i32 %188, 255
  %190 = trunc i32 %189 to i8
  %191 = load ptr, ptr %12, align 8, !tbaa !39
  store i8 %190, ptr %191, align 1, !tbaa !57
  %192 = load ptr, ptr %12, align 8, !tbaa !39
  %193 = getelementptr inbounds nuw i8, ptr %192, i32 1
  store ptr %193, ptr %12, align 8, !tbaa !39
  %194 = load i32, ptr %11, align 4, !tbaa !17
  %195 = lshr i32 %194, 16
  %196 = and i32 %195, 255
  %197 = trunc i32 %196 to i8
  %198 = load ptr, ptr %12, align 8, !tbaa !39
  store i8 %197, ptr %198, align 1, !tbaa !57
  %199 = load ptr, ptr %12, align 8, !tbaa !39
  %200 = getelementptr inbounds nuw i8, ptr %199, i32 1
  store ptr %200, ptr %12, align 8, !tbaa !39
  %201 = load i32, ptr %11, align 4, !tbaa !17
  %202 = lshr i32 %201, 24
  %203 = and i32 %202, 255
  %204 = trunc i32 %203 to i8
  %205 = load ptr, ptr %12, align 8, !tbaa !39
  store i8 %204, ptr %205, align 1, !tbaa !57
  %206 = load ptr, ptr %12, align 8, !tbaa !39
  %207 = getelementptr inbounds nuw i8, ptr %206, i32 1
  store ptr %207, ptr %12, align 8, !tbaa !39
  br label %208

208:                                              ; preds = %180
  br label %209

209:                                              ; preds = %208
  call void @llvm.lifetime.end.p0(i64 8, ptr %12) #7
  call void @llvm.lifetime.end.p0(i64 4, ptr %11) #7
  br label %210

210:                                              ; preds = %209, %90
  br label %211

211:                                              ; preds = %210, %70
  br label %212

212:                                              ; preds = %211, %19
  %213 = load i32, ptr %9, align 4, !tbaa !17
  call void @llvm.lifetime.end.p0(i64 1, ptr %10) #7
  call void @llvm.lifetime.end.p0(i64 4, ptr %9) #7
  call void @llvm.lifetime.end.p0(i64 4, ptr %8) #7
  call void @llvm.lifetime.end.p0(i64 8, ptr %7) #7
  ret i32 %213
}