; Function Attrs: nounwind uwtable
define internal fastcc range(i32 -1, 1) i32 @H5O__chunk_serialize(ptr noundef %0, ptr noundef %1, i32 noundef %2) unnamed_addr #1 {
  %4 = load i8, ptr @H5O_init_g, align 1, !tbaa !3, !range !7, !noundef !8
  %5 = trunc nuw i8 %4 to i1
  %6 = load i8, ptr @H5_libterm_g, align 1, !range !7
  %7 = trunc nuw i8 %6 to i1
  %8 = xor i1 %7, true
  %9 = select i1 %5, i1 true, i1 %8
  br i1 %9, label %10, label %81, !prof !9

10:                                               ; preds = %3
  %11 = getelementptr inbounds nuw i8, ptr %1, i64 336
  %12 = load i64, ptr %11, align 8, !tbaa !41
  %.not48 = icmp eq i64 %12, 0
  br i1 %.not48, label %._crit_edge, label %.lr.ph.preheader

.lr.ph.preheader:                                 ; preds = %10
  %13 = getelementptr inbounds nuw i8, ptr %1, i64 352
  %14 = load ptr, ptr %13, align 8, !tbaa !59
  br label %.lr.ph

.lr.ph:                                           ; preds = %.lr.ph.preheader, %30
  %15 = phi i64 [ %31, %30 ], [ %12, %.lr.ph.preheader ]
  %.047 = phi ptr [ %33, %30 ], [ %14, %.lr.ph.preheader ]
  %.04346 = phi i32 [ %32, %30 ], [ 0, %.lr.ph.preheader ]
  %16 = getelementptr inbounds nuw i8, ptr %.047, i64 8
  %17 = load i8, ptr %16, align 8, !tbaa !63, !range !7, !noundef !8
  %18 = trunc nuw i8 %17 to i1
  br i1 %18, label %19, label %30

19:                                               ; preds = %.lr.ph
  %20 = getelementptr inbounds nuw i8, ptr %.047, i64 16
  %21 = load i32, ptr %20, align 8, !tbaa !60
  %22 = icmp eq i32 %21, %2
  br i1 %22, label %23, label %30

23:                                               ; preds = %19
  %24 = tail call i32 @H5O_msg_flush(ptr noundef %0, ptr noundef nonnull %1, ptr noundef nonnull %.047) #9
  %25 = icmp slt i32 %24, 0
  br i1 %25, label %26, label %._crit_edge49

._crit_edge49:                                    ; preds = %23
  %.pre = load i64, ptr %11, align 8, !tbaa !41
  br label %30

26:                                               ; preds = %23
  %27 = load i64, ptr @H5E_OHDR_g, align 8, !tbaa !10
  %28 = load i64, ptr @H5E_CANTENCODE_g, align 8, !tbaa !10
  %29 = tail call i32 (ptr, ptr, i32, i64, i64, ptr, ...) @H5E_printf_stack(ptr noundef nonnull @.str.3, ptr noundef nonnull @__func__.H5O__chunk_serialize, i32 noundef 1554, i64 noundef %27, i64 noundef %28, ptr noundef nonnull @.str.38) #9
  br label %81

30:                                               ; preds = %._crit_edge49, %.lr.ph, %19
  %31 = phi i64 [ %.pre, %._crit_edge49 ], [ %15, %.lr.ph ], [ %15, %19 ]
  %32 = add i32 %.04346, 1
  %33 = getelementptr inbounds nuw i8, ptr %.047, i64 48
  %34 = zext i32 %32 to i64
  %35 = icmp ugt i64 %31, %34
  br i1 %35, label %.lr.ph, label %._crit_edge, !llvm.loop !111

._crit_edge:                                      ; preds = %30, %10
  %36 = getelementptr inbounds nuw i8, ptr %1, i64 288
  %37 = load i8, ptr %36, align 8, !tbaa !21
  %38 = icmp ugt i8 %37, 1
  br i1 %38, label %39, label %81

39:                                               ; preds = %._crit_edge
  %40 = getelementptr inbounds nuw i8, ptr %1, i64 392
  %41 = load ptr, ptr %40, align 8, !tbaa !43
  %42 = zext i32 %2 to i64
  %43 = getelementptr inbounds nuw %struct.H5O_chunk_t, ptr %41, i64 %42
  %44 = getelementptr inbounds nuw i8, ptr %43, i64 16
  %45 = load i64, ptr %44, align 8, !tbaa !81
  %.not = icmp eq i64 %45, 0
  br i1 %.not, label %54, label %46

46:                                               ; preds = %39
  %47 = getelementptr inbounds nuw i8, ptr %43, i64 24
  %48 = load ptr, ptr %47, align 8, !tbaa !48
  %49 = getelementptr inbounds nuw i8, ptr %43, i64 8
  %50 = load i64, ptr %49, align 8, !tbaa !44
  %51 = getelementptr inbounds nuw i8, ptr %48, i64 %50
  %52 = sub i64 -4, %45
  %53 = getelementptr inbounds i8, ptr %51, i64 %52
  tail call void @llvm.memset.p0.i64(ptr align 1 %53, i8 0, i64 %45, i1 false)
  %.pre50 = load ptr, ptr %40, align 8, !tbaa !43
  br label %54

54:                                               ; preds = %46, %39
  %55 = phi ptr [ %.pre50, %46 ], [ %41, %39 ]
  %56 = getelementptr inbounds nuw %struct.H5O_chunk_t, ptr %55, i64 %42
  %57 = getelementptr inbounds nuw i8, ptr %56, i64 24
  %58 = load ptr, ptr %57, align 8, !tbaa !48
  %59 = getelementptr inbounds nuw i8, ptr %56, i64 8
  %60 = load i64, ptr %59, align 8, !tbaa !44
  %61 = add i64 %60, -4
  %62 = tail call i32 @H5_checksum_metadata(ptr noundef %58, i64 noundef %61, i32 noundef 0) #9
  %63 = load ptr, ptr %40, align 8, !tbaa !43
  %64 = getelementptr inbounds nuw %struct.H5O_chunk_t, ptr %63, i64 %42
  %65 = getelementptr inbounds nuw i8, ptr %64, i64 24
  %66 = load ptr, ptr %65, align 8, !tbaa !48
  %67 = getelementptr inbounds nuw i8, ptr %64, i64 8
  %68 = load i64, ptr %67, align 8, !tbaa !44
  %69 = getelementptr i8, ptr %66, i64 %68
  %70 = getelementptr i8, ptr %69, i64 -4
  %71 = trunc i32 %62 to i8
  store i8 %71, ptr %70, align 1, !tbaa !49
  %72 = getelementptr i8, ptr %69, i64 -3
  %73 = lshr i32 %62, 8
  %74 = trunc i32 %73 to i8
  store i8 %74, ptr %72, align 1, !tbaa !49
  %75 = getelementptr i8, ptr %69, i64 -2
  %76 = lshr i32 %62, 16
  %77 = trunc i32 %76 to i8
  store i8 %77, ptr %75, align 1, !tbaa !49
  %78 = getelementptr i8, ptr %69, i64 -1
  %79 = lshr i32 %62, 24
  %80 = trunc nuw i32 %79 to i8
  store i8 %80, ptr %78, align 1, !tbaa !49
  br label %81

81:                                               ; preds = %26, %54, %._crit_edge, %3
  %.044 = phi i32 [ -1, %26 ], [ 0, %54 ], [ 0, %._crit_edge ], [ 0, %3 ]
  ret i32 %.044
}